; Function Attrs: nounwind uwtable
define dso_local void @lua_rawseti(ptr noundef %0, i32 noundef %1, i32 noundef %2) local_unnamed_addr #2 {
  %4 = icmp sgt i32 %1, 0
  br i1 %4, label %5, label %13

5:                                                ; preds = %3
  %6 = getelementptr inbounds nuw i8, ptr %0, i64 24
  %7 = load ptr, ptr %6, align 8, !tbaa !21
  %8 = zext nneg i32 %1 to i64
  %9 = getelementptr %struct.lua_TValue, ptr %7, i64 %8
  %10 = getelementptr i8, ptr %9, i64 -16
  %11 = getelementptr inbounds nuw i8, ptr %0, i64 16
  %12 = load ptr, ptr %11, align 8, !tbaa !4
  %.not28.i = icmp ult ptr %10, %12
  %.luaO_nilobject_.i = select i1 %.not28.i, ptr %10, ptr @luaO_nilobject_
  br label %index2adr.exit

13:                                               ; preds = %3
  %14 = icmp sgt i32 %1, -10000
  br i1 %14, label %15, label %20

15:                                               ; preds = %13
  %16 = getelementptr inbounds nuw i8, ptr %0, i64 16
  %17 = load ptr, ptr %16, align 8, !tbaa !4
  %18 = sext i32 %1 to i64
  %19 = getelementptr inbounds %struct.lua_TValue, ptr %17, i64 %18
  br label %index2adr.exit

20:                                               ; preds = %13
  switch i32 %1, label %37 [
    i32 -10000, label %21
    i32 -10001, label %25
    i32 -10002, label %35
  ]

21:                                               ; preds = %20
  %22 = getelementptr inbounds nuw i8, ptr %0, i64 32
  %23 = load ptr, ptr %22, align 8, !tbaa !29
  %24 = getelementptr inbounds nuw i8, ptr %23, i64 160
  br label %index2adr.exit

25:                                               ; preds = %20
  %26 = getelementptr inbounds nuw i8, ptr %0, i64 40
  %27 = load ptr, ptr %26, align 8, !tbaa !23
  %28 = getelementptr inbounds nuw i8, ptr %27, i64 8
  %29 = load ptr, ptr %28, align 8, !tbaa !41
  %30 = load ptr, ptr %29, align 8, !tbaa !19
  %31 = getelementptr inbounds nuw i8, ptr %0, i64 136
  %32 = getelementptr inbounds nuw i8, ptr %30, i64 24
  %33 = load ptr, ptr %32, align 8, !tbaa !19
  store ptr %33, ptr %31, align 8, !tbaa !19
  %34 = getelementptr inbounds nuw i8, ptr %0, i64 144
  store i32 5, ptr %34, align 8, !tbaa !20
  br label %index2adr.exit

35:                                               ; preds = %20
  %36 = getelementptr inbounds nuw i8, ptr %0, i64 120
  br label %index2adr.exit

37:                                               ; preds = %20
  %38 = getelementptr inbounds nuw i8, ptr %0, i64 40
  %39 = load ptr, ptr %38, align 8, !tbaa !23
  %40 = getelementptr inbounds nuw i8, ptr %39, i64 8
  %41 = load ptr, ptr %40, align 8, !tbaa !41
  %42 = load ptr, ptr %41, align 8, !tbaa !19
  %43 = sub nuw nsw i32 -10002, %1
  %44 = getelementptr inbounds nuw i8, ptr %42, i64 11
  %45 = load i8, ptr %44, align 1, !tbaa !19
  %46 = zext i8 %45 to i32
  %.not.i = icmp samesign ugt i32 %43, %46
  %47 = getelementptr inbounds nuw i8, ptr %42, i64 40
  %48 = sub nuw nsw i32 -10003, %1
  %49 = zext nneg i32 %48 to i64
  %50 = getelementptr inbounds nuw [1 x %struct.lua_TValue], ptr %47, i64 0, i64 %49
  %51 = select i1 %.not.i, ptr @luaO_nilobject_, ptr %50
  br label %index2adr.exit

index2adr.exit:                                   ; preds = %5, %15, %21, %25, %35, %37
  %.1.i = phi ptr [ %.luaO_nilobject_.i, %5 ], [ %19, %15 ], [ %51, %37 ], [ %36, %35 ], [ %31, %25 ], [ %24, %21 ]
  %52 = load ptr, ptr %.1.i, align 8, !tbaa !19
  %53 = getelementptr inbounds nuw i8, ptr %52, i64 12
  %54 = load i32, ptr %53, align 4, !tbaa !19
  %.not = icmp eq i32 %54, 0
  br i1 %.not, label %56, label %55

55:                                               ; preds = %index2adr.exit
  tail call void (ptr, ptr, ...) @luaG_runerror(ptr noundef %0, ptr noundef nonnull @.str.2) #14
  %.pre = load ptr, ptr %.1.i, align 8, !tbaa !19
  br label %56

56:                                               ; preds = %55, %index2adr.exit
  %57 = phi ptr [ %.pre, %55 ], [ %52, %index2adr.exit ]
  %58 = getelementptr inbounds nuw i8, ptr %0, i64 16
  %59 = load ptr, ptr %58, align 8, !tbaa !4
  %60 = getelementptr inbounds i8, ptr %59, i64 -16
  %61 = tail call ptr @luaH_setnum(ptr noundef %0, ptr noundef %57, i32 noundef %2) #14
  %62 = load i64, ptr %60, align 8, !tbaa !19
  store i64 %62, ptr %61, align 8, !tbaa !19
  %63 = getelementptr inbounds i8, ptr %59, i64 -8
  %64 = load i32, ptr %63, align 8, !tbaa !20
  %65 = getelementptr inbounds nuw i8, ptr %61, i64 8
  store i32 %64, ptr %65, align 8, !tbaa !20
  %66 = load ptr, ptr %58, align 8, !tbaa !4
  %67 = getelementptr inbounds i8, ptr %66, i64 -8
  %68 = load i32, ptr %67, align 8, !tbaa !20
  %69 = icmp sgt i32 %68, 3
  br i1 %69, label %70, label %82

70:                                               ; preds = %56
  %71 = getelementptr inbounds i8, ptr %66, i64 -16
  %72 = load ptr, ptr %71, align 8, !tbaa !19
  %73 = getelementptr inbounds nuw i8, ptr %72, i64 9
  %74 = load i8, ptr %73, align 1, !tbaa !19
  %75 = and i8 %74, 3
  %.not17 = icmp eq i8 %75, 0
  br i1 %.not17, label %82, label %76

76:                                               ; preds = %70
  %77 = load ptr, ptr %.1.i, align 8, !tbaa !19
  %78 = getelementptr inbounds nuw i8, ptr %77, i64 9
  %79 = load i8, ptr %78, align 1, !tbaa !19
  %80 = and i8 %79, 4
  %.not18 = icmp eq i8 %80, 0
  br i1 %.not18, label %82, label %81

81:                                               ; preds = %76
  tail call void @luaC_barrierback(ptr noundef nonnull %0, ptr noundef nonnull %77) #14
  %.pre19 = load ptr, ptr %58, align 8, !tbaa !4
  br label %82

82:                                               ; preds = %81, %76, %70, %56
  %83 = phi ptr [ %.pre19, %81 ], [ %66, %76 ], [ %66, %70 ], [ %66, %56 ]
  %84 = getelementptr inbounds i8, ptr %83, i64 -16
  store ptr %84, ptr %58, align 8, !tbaa !4
  ret void
}